; Function Attrs: nounwind uwtable
define internal fastcc void @_jumbleCreateOpClassItem(ptr noundef %0, ptr noundef nonnull readonly captures(none) %1) unnamed_addr #0 {
  %3 = getelementptr inbounds nuw i8, ptr %1, i64 4
  %4 = load ptr, ptr %0, align 8
  %5 = getelementptr inbounds nuw i8, ptr %0, i64 8
  %6 = load i64, ptr %5, align 8
  br label %.lr.ph.i

.lr.ph.i:                                         ; preds = %10, %2
  %.026.i = phi ptr [ %15, %10 ], [ %3, %2 ]
  %.02125.i = phi i64 [ %16, %10 ], [ 4, %2 ]
  %.02224.i = phi i64 [ %14, %10 ], [ %6, %2 ]
  %7 = icmp ugt i64 %.02224.i, 1023
  br i1 %7, label %8, label %10

8:                                                ; preds = %.lr.ph.i
  %9 = tail call i64 @hash_bytes_extended(ptr noundef %4, i32 noundef 1024, i64 noundef 0) #9
  store i64 %9, ptr %4, align 1
  br label %10

10:                                               ; preds = %8, %.lr.ph.i
  %.1.i = phi i64 [ 8, %8 ], [ %.02224.i, %.lr.ph.i ]
  %11 = sub nuw nsw i64 1024, %.1.i
  %12 = tail call i64 @llvm.umin.i64(i64 %.02125.i, i64 %11)
  %13 = getelementptr inbounds nuw i8, ptr %4, i64 %.1.i
  tail call void @llvm.memcpy.p0.p0.i64(ptr noundef nonnull align 1 dereferenceable(1) %13, ptr noundef nonnull align 1 dereferenceable(1) %.026.i, i64 %12, i1 false)
  %14 = add nuw nsw i64 %12, %.1.i
  %15 = getelementptr inbounds nuw i8, ptr %.026.i, i64 %12
  %16 = sub i64 %.02125.i, %12
  %.not.i = icmp eq i64 %16, 0
  br i1 %.not.i, label %AppendJumble.exit, label %.lr.ph.i, !llvm.loop !7

AppendJumble.exit:                                ; preds = %10
  store i64 %14, ptr %5, align 8
  %17 = getelementptr inbounds nuw i8, ptr %1, i64 8
  %18 = load ptr, ptr %17, align 8
  tail call fastcc void @_jumbleNode(ptr noundef nonnull %0, ptr noundef %18)
  %19 = getelementptr inbounds nuw i8, ptr %1, i64 16
  %20 = load ptr, ptr %0, align 8
  %21 = load i64, ptr %5, align 8
  br label %.lr.ph.i13

.lr.ph.i13:                                       ; preds = %25, %AppendJumble.exit
  %.026.i14 = phi ptr [ %30, %25 ], [ %19, %AppendJumble.exit ]
  %.02125.i15 = phi i64 [ %31, %25 ], [ 4, %AppendJumble.exit ]
  %.02224.i16 = phi i64 [ %29, %25 ], [ %21, %AppendJumble.exit ]
  %22 = icmp ugt i64 %.02224.i16, 1023
  br i1 %22, label %23, label %25

23:                                               ; preds = %.lr.ph.i13
  %24 = tail call i64 @hash_bytes_extended(ptr noundef %20, i32 noundef 1024, i64 noundef 0) #9
  store i64 %24, ptr %20, align 1
  br label %25

25:                                               ; preds = %23, %.lr.ph.i13
  %.1.i17 = phi i64 [ 8, %23 ], [ %.02224.i16, %.lr.ph.i13 ]
  %26 = sub nuw nsw i64 1024, %.1.i17
  %27 = tail call i64 @llvm.umin.i64(i64 %.02125.i15, i64 %26)
  %28 = getelementptr inbounds nuw i8, ptr %20, i64 %.1.i17
  tail call void @llvm.memcpy.p0.p0.i64(ptr noundef nonnull align 1 dereferenceable(1) %28, ptr noundef nonnull align 1 dereferenceable(1) %.026.i14, i64 %27, i1 false)
  %29 = add nuw nsw i64 %27, %.1.i17
  %30 = getelementptr inbounds nuw i8, ptr %.026.i14, i64 %27
  %31 = sub i64 %.02125.i15, %27
  %.not.i18 = icmp eq i64 %31, 0
  br i1 %.not.i18, label %AppendJumble.exit19, label %.lr.ph.i13, !llvm.loop !7

AppendJumble.exit19:                              ; preds = %25
  store i64 %29, ptr %5, align 8
  %32 = getelementptr inbounds nuw i8, ptr %1, i64 24
  %33 = load ptr, ptr %32, align 8
  tail call fastcc void @_jumbleNode(ptr noundef nonnull %0, ptr noundef %33)
  %34 = getelementptr inbounds nuw i8, ptr %1, i64 32
  %35 = load ptr, ptr %34, align 8
  tail call fastcc void @_jumbleNode(ptr noundef nonnull %0, ptr noundef %35)
  %36 = getelementptr inbounds nuw i8, ptr %1, i64 40
  %37 = load ptr, ptr %36, align 8
  tail call fastcc void @_jumbleNode(ptr noundef nonnull %0, ptr noundef %37)
  ret void
}